target datalayout = "e-m:e-p270:32:32-p271:32:32-p272:64:64-i64:64-i128:128-f80:128-n8:16:32:64-S128"
target triple = "x86_64-pc-linux-gnu"

%class.ciMethodData = type { %class.ciMetadata, i32, i32, ptr, i32, i32, i32, i8, i8, i64, i64, i64, i64, i32, %"class.MethodData::CompilerCounters" }
%class.ciMetadata = type { %class.ciBaseObject.base, ptr }
%class.ciBaseObject.base = type <{ ptr, i32 }>
%"class.MethodData::CompilerCounters" = type { i32, i32, i32, %union.anon }
%union.anon = type { i64, [56 x i8] }

; Function Attrs: mustprogress nounwind uwtable
define linkonce_odr hidden void @_Z8set_bitsRll(ptr noundef nonnull align 8 dereferenceable(8) %0, i64 noundef %1) #1 comdat {
  %3 = alloca ptr, align 8
  %4 = alloca i64, align 8
  store ptr %0, ptr %3, align 8
  store i64 %1, ptr %4, align 8
  %5 = load i64, ptr %4, align 8
  %6 = load ptr, ptr %3, align 8
  %7 = load i64, ptr %6, align 8
  %8 = or i64 %7, %5
  store i64 %8, ptr %6, align 8
  ret void
}

; Function Attrs: mustprogress nounwind uwtable
define linkonce_odr hidden void @_Z11set_nth_bitRli(ptr noundef nonnull align 8 dereferenceable(8) %0, i32 noundef %1) #1 comdat {
  %3 = alloca ptr, align 8
  %4 = alloca i32, align 4
  store ptr %0, ptr %3, align 8
  store i32 %1, ptr %4, align 4
  %5 = load ptr, ptr %3, align 8
  %6 = load i32, ptr %4, align 4
  %7 = icmp sge i32 %6, 64
  br i1 %7, label %8, label %9

8:                                                ; preds = %2
  br label %13

9:                                                ; preds = %2
  %10 = load i32, ptr %4, align 4
  %11 = zext i32 %10 to i64
  %12 = shl i64 1, %11
  br label %13

13:                                               ; preds = %9, %8
  %14 = phi i64 [ 0, %8 ], [ %12, %9 ]
  call void @_Z8set_bitsRll(ptr noundef nonnull align 8 dereferenceable(8) %5, i64 noundef %14)
  ret void
}

; Function Attrs: mustprogress nounwind uwtable
define hidden void @_ZN12ciMethodData16set_arg_returnedEi(ptr noundef nonnull align 8 dereferenceable(176) %0, i32 noundef %1) #1 align 2 {
  %3 = alloca ptr, align 8
  %4 = alloca i32, align 4
  store ptr %0, ptr %3, align 8
  store i32 %1, ptr %4, align 4
  %5 = load ptr, ptr %3, align 8
  %6 = getelementptr inbounds %class.ciMethodData, ptr %5, i32 0, i32 12
  %7 = load i32, ptr %4, align 4
  call void @_Z11set_nth_bitRli(ptr noundef nonnull align 8 dereferenceable(8) %6, i32 noundef %7)
  ret void
}