; Function Attrs: mustprogress nofree norecurse nosync nounwind willreturn memory(argmem: readwrite) uwtable
define hidden void @_ZN12ciMethodData16set_arg_returnedEi(ptr nocapture noundef nonnull align 8 dereferenceable(176) %0, i32 noundef %1) local_unnamed_addr #5 align 2 {
  %3 = getelementptr inbounds i8, ptr %0, i64 80
  %4 = icmp sgt i32 %1, 63
  %5 = zext nneg i32 %1 to i64
  %6 = shl nuw i64 1, %5
  %7 = select i1 %4, i64 0, i64 %6
  %8 = load i64, ptr %3, align 8
  %9 = or i64 %8, %7
  store i64 %9, ptr %3, align 8
  ret void
}